; Function Attrs: mustprogress nounwind uwtable
define internal void @_ZN19OpenColorIO_v2_5dev12_GLOBAL__N_113Lut3DRendererD0Ev(ptr noundef nonnull align 8 dereferenceable(40) initializes((0, 8)) %0) unnamed_addr #9 align 2 personality ptr @__gxx_personality_v0 {
  store ptr getelementptr inbounds nuw inrange(-16, 48) (i8, ptr @_ZTVN19OpenColorIO_v2_5dev12_GLOBAL__N_117BaseLut3DRendererE, i64 16), ptr %0, align 8, !tbaa !50
  %2 = getelementptr inbounds nuw i8, ptr %0, i64 8
  %3 = load ptr, ptr %2, align 8, !tbaa !97
  invoke void @_ZN19OpenColorIO_v2_5dev8Platform11AlignedFreeEPv(ptr noundef %3)
          to label %_ZN19OpenColorIO_v2_5dev12_GLOBAL__N_117BaseLut3DRendererD2Ev.exit unwind label %4

4:                                                ; preds = %1
  %5 = landingpad { ptr, i32 }
          catch ptr null
  %6 = extractvalue { ptr, i32 } %5, 0
  tail call void @__clang_call_terminate(ptr %6) #31
  unreachable

_ZN19OpenColorIO_v2_5dev12_GLOBAL__N_117BaseLut3DRendererD2Ev.exit: ; preds = %1
  tail call void @_ZdlPvm(ptr noundef nonnull %0, i64 noundef 40) #29
  ret void
}